target datalayout = "e-m:e-p270:32:32-p271:32:32-p272:64:64-i64:64-i128:128-f80:128-n8:16:32:64-S128"
target triple = "x86_64-pc-linux-gnu"

%struct.Gia_Man_t_ = type { ptr, ptr, i32, i32, i32, i32, ptr, ptr, i32, i32, i32, ptr, ptr, %struct.Vec_Int_t_, %struct.Vec_Int_t_, i32, i32, i32, %struct.Vec_Int_t_, ptr, ptr, ptr, i32, i32, i32, i32, ptr, ptr, ptr, ptr, ptr, i32, i32, ptr, i32, ptr, ptr, ptr, ptr, ptr, ptr, ptr, ptr, ptr, ptr, ptr, ptr, ptr, ptr, ptr, ptr, ptr, ptr, %struct.Vec_Int_t_, %struct.Vec_Int_t_, ptr, ptr, ptr, ptr, ptr, ptr, ptr, ptr, ptr, ptr, ptr, ptr, ptr, ptr, ptr, ptr, ptr, ptr, ptr, ptr, ptr, i32, float, float, ptr, ptr, i32, ptr, ptr, ptr, ptr, ptr, ptr, ptr, ptr, ptr, ptr, ptr, ptr, ptr, ptr, ptr, i64, i64, ptr, ptr, i32, i32, i32, i32, i32, i32, i32, i32, i32, i32, i32, i32, ptr, ptr, ptr, ptr, ptr, ptr, ptr, ptr, i32, i32, i32, ptr, i32, i32, ptr, ptr, ptr, ptr, ptr, ptr, i32, i32, ptr, %struct.Vec_Int_t_, %struct.Vec_Int_t_, %struct.Vec_Int_t_, ptr, ptr, ptr, i32, i32, i32, i32, ptr, ptr, ptr, ptr, ptr }
%struct.Vec_Int_t_ = type { i32, i32, ptr }
%struct.Gia_Obj_t_ = type <{ i64, i32 }>

; Function Attrs: inlinehint nounwind uwtable
define internal void @Vec_IntGrow(ptr noundef %0, i32 noundef %1) #2 {
  %3 = alloca ptr, align 8
  %4 = alloca i32, align 4
  store ptr %0, ptr %3, align 8, !tbaa !29
  store i32 %1, ptr %4, align 4, !tbaa !47
  %5 = load ptr, ptr %3, align 8, !tbaa !29
  %6 = getelementptr inbounds nuw %struct.Vec_Int_t_, ptr %5, i32 0, i32 0
  %7 = load i32, ptr %6, align 8, !tbaa !51
  %8 = load i32, ptr %4, align 4, !tbaa !47
  %9 = icmp sge i32 %7, %8
  br i1 %9, label %10, label %11

10:                                               ; preds = %2
  br label %36

11:                                               ; preds = %2
  %12 = load ptr, ptr %3, align 8, !tbaa !29
  %13 = getelementptr inbounds nuw %struct.Vec_Int_t_, ptr %12, i32 0, i32 2
  %14 = load ptr, ptr %13, align 8, !tbaa !69
  %15 = icmp ne ptr %14, null
  br i1 %15, label %16, label %24

16:                                               ; preds = %11
  %17 = load ptr, ptr %3, align 8, !tbaa !29
  %18 = getelementptr inbounds nuw %struct.Vec_Int_t_, ptr %17, i32 0, i32 2
  %19 = load ptr, ptr %18, align 8, !tbaa !69
  %20 = load i32, ptr %4, align 4, !tbaa !47
  %21 = sext i32 %20 to i64
  %22 = mul i64 4, %21
  %23 = call ptr @realloc(ptr noundef %19, i64 noundef %22) #17
  br label %29

24:                                               ; preds = %11
  %25 = load i32, ptr %4, align 4, !tbaa !47
  %26 = sext i32 %25 to i64
  %27 = mul i64 4, %26
  %28 = call noalias ptr @malloc(i64 noundef %27) #16
  br label %29

29:                                               ; preds = %24, %16
  %30 = phi ptr [ %23, %16 ], [ %28, %24 ]
  %31 = load ptr, ptr %3, align 8, !tbaa !29
  %32 = getelementptr inbounds nuw %struct.Vec_Int_t_, ptr %31, i32 0, i32 2
  store ptr %30, ptr %32, align 8, !tbaa !69
  %33 = load i32, ptr %4, align 4, !tbaa !47
  %34 = load ptr, ptr %3, align 8, !tbaa !29
  %35 = getelementptr inbounds nuw %struct.Vec_Int_t_, ptr %34, i32 0, i32 0
  store i32 %33, ptr %35, align 8, !tbaa !51
  br label %36

36:                                               ; preds = %29, %10
  ret void
}

; Function Attrs: inlinehint nounwind uwtable
define internal i32 @Gia_ObjFaninC1(ptr noundef %0) #2 {
  %2 = alloca ptr, align 8
  store ptr %0, ptr %2, align 8, !tbaa !73
  %3 = load ptr, ptr %2, align 8, !tbaa !73
  %4 = load i64, ptr %3, align 4
  %5 = lshr i64 %4, 61
  %6 = and i64 %5, 1
  %7 = trunc i64 %6 to i32
  ret i32 %7
}

; Function Attrs: inlinehint nounwind uwtable
define internal ptr @Gia_ObjFanin1(ptr noundef %0) #2 {
  %2 = alloca ptr, align 8
  store ptr %0, ptr %2, align 8, !tbaa !73
  %3 = load ptr, ptr %2, align 8, !tbaa !73
  %4 = load ptr, ptr %2, align 8, !tbaa !73
  %5 = load i64, ptr %4, align 4
  %6 = lshr i64 %5, 32
  %7 = and i64 %6, 536870911
  %8 = trunc i64 %7 to i32
  %9 = sext i32 %8 to i64
  %10 = sub i64 0, %9
  %11 = getelementptr inbounds %struct.Gia_Obj_t_, ptr %3, i64 %10
  ret ptr %11
}

; Function Attrs: inlinehint nounwind uwtable
define internal ptr @Gia_NotCond(ptr noundef %0, i32 noundef %1) #2 {
  %3 = alloca ptr, align 8
  %4 = alloca i32, align 4
  store ptr %0, ptr %3, align 8, !tbaa !73
  store i32 %1, ptr %4, align 4, !tbaa !47
  %5 = load ptr, ptr %3, align 8, !tbaa !73
  %6 = ptrtoint ptr %5 to i64
  %7 = load i32, ptr %4, align 4, !tbaa !47
  %8 = sext i32 %7 to i64
  %9 = xor i64 %6, %8
  %10 = inttoptr i64 %9 to ptr
  ret ptr %10
}

; Function Attrs: inlinehint nounwind uwtable
define internal i32 @Gia_ObjFaninC0(ptr noundef %0) #2 {
  %2 = alloca ptr, align 8
  store ptr %0, ptr %2, align 8, !tbaa !73
  %3 = load ptr, ptr %2, align 8, !tbaa !73
  %4 = load i64, ptr %3, align 4
  %5 = lshr i64 %4, 29
  %6 = and i64 %5, 1
  %7 = trunc i64 %6 to i32
  ret i32 %7
}

; Function Attrs: inlinehint nounwind uwtable
define internal ptr @Gia_ObjFanin0(ptr noundef %0) #2 {
  %2 = alloca ptr, align 8
  store ptr %0, ptr %2, align 8, !tbaa !73
  %3 = load ptr, ptr %2, align 8, !tbaa !73
  %4 = load ptr, ptr %2, align 8, !tbaa !73
  %5 = load i64, ptr %4, align 4
  %6 = and i64 %5, 536870911
  %7 = trunc i64 %6 to i32
  %8 = sext i32 %7 to i64
  %9 = sub i64 0, %8
  %10 = getelementptr inbounds %struct.Gia_Obj_t_, ptr %3, i64 %9
  ret ptr %10
}

; Function Attrs: inlinehint nounwind uwtable
define internal void @Vec_IntPush(ptr noundef %0, i32 noundef %1) #2 {
  %3 = alloca ptr, align 8
  %4 = alloca i32, align 4
  store ptr %0, ptr %3, align 8, !tbaa !29
  store i32 %1, ptr %4, align 4, !tbaa !47
  %5 = load ptr, ptr %3, align 8, !tbaa !29
  %6 = getelementptr inbounds nuw %struct.Vec_Int_t_, ptr %5, i32 0, i32 1
  %7 = load i32, ptr %6, align 4, !tbaa !30
  %8 = load ptr, ptr %3, align 8, !tbaa !29
  %9 = getelementptr inbounds nuw %struct.Vec_Int_t_, ptr %8, i32 0, i32 0
  %10 = load i32, ptr %9, align 8, !tbaa !51
  %11 = icmp eq i32 %7, %10
  br i1 %11, label %12, label %26

12:                                               ; preds = %2
  %13 = load ptr, ptr %3, align 8, !tbaa !29
  %14 = getelementptr inbounds nuw %struct.Vec_Int_t_, ptr %13, i32 0, i32 0
  %15 = load i32, ptr %14, align 8, !tbaa !51
  %16 = icmp slt i32 %15, 16
  br i1 %16, label %17, label %19

17:                                               ; preds = %12
  %18 = load ptr, ptr %3, align 8, !tbaa !29
  call void @Vec_IntGrow(ptr noundef %18, i32 noundef 16)
  br label %25

19:                                               ; preds = %12
  %20 = load ptr, ptr %3, align 8, !tbaa !29
  %21 = load ptr, ptr %3, align 8, !tbaa !29
  %22 = getelementptr inbounds nuw %struct.Vec_Int_t_, ptr %21, i32 0, i32 0
  %23 = load i32, ptr %22, align 8, !tbaa !51
  %24 = mul nsw i32 2, %23
  call void @Vec_IntGrow(ptr noundef %20, i32 noundef %24)
  br label %25

25:                                               ; preds = %19, %17
  br label %26

26:                                               ; preds = %25, %2
  %27 = load i32, ptr %4, align 4, !tbaa !47
  %28 = load ptr, ptr %3, align 8, !tbaa !29
  %29 = getelementptr inbounds nuw %struct.Vec_Int_t_, ptr %28, i32 0, i32 2
  %30 = load ptr, ptr %29, align 8, !tbaa !69
  %31 = load ptr, ptr %3, align 8, !tbaa !29
  %32 = getelementptr inbounds nuw %struct.Vec_Int_t_, ptr %31, i32 0, i32 1
  %33 = load i32, ptr %32, align 4, !tbaa !30
  %34 = add nsw i32 %33, 1
  store i32 %34, ptr %32, align 4, !tbaa !30
  %35 = sext i32 %33 to i64
  %36 = getelementptr inbounds i32, ptr %30, i64 %35
  store i32 %27, ptr %36, align 4, !tbaa !47
  ret void
}

; Function Attrs: inlinehint nounwind uwtable
define internal i32 @Abc_Var2Lit(i32 noundef %0, i32 noundef %1) #2 {
  %3 = alloca i32, align 4
  %4 = alloca i32, align 4
  store i32 %0, ptr %3, align 4, !tbaa !47
  store i32 %1, ptr %4, align 4, !tbaa !47
  %5 = load i32, ptr %3, align 4, !tbaa !47
  %6 = load i32, ptr %3, align 4, !tbaa !47
  %7 = add nsw i32 %5, %6
  %8 = load i32, ptr %4, align 4, !tbaa !47
  %9 = add nsw i32 %7, %8
  ret i32 %9
}

; Function Attrs: inlinehint nounwind uwtable
define internal i32 @Gia_ObjId(ptr noundef %0, ptr noundef %1) #2 {
  %3 = alloca ptr, align 8
  %4 = alloca ptr, align 8
  store ptr %0, ptr %3, align 8, !tbaa !3
  store ptr %1, ptr %4, align 8, !tbaa !73
  %5 = load ptr, ptr %4, align 8, !tbaa !73
  %6 = load ptr, ptr %3, align 8, !tbaa !3
  %7 = getelementptr inbounds nuw %struct.Gia_Man_t_, ptr %6, i32 0, i32 6
  %8 = load ptr, ptr %7, align 8, !tbaa !88
  %9 = ptrtoint ptr %5 to i64
  %10 = ptrtoint ptr %8 to i64
  %11 = sub i64 %9, %10
  %12 = sdiv exact i64 %11, 12
  %13 = trunc i64 %12 to i32
  ret i32 %13
}

; Function Attrs: inlinehint nounwind uwtable
define internal ptr @Gia_Regular(ptr noundef %0) #2 {
  %2 = alloca ptr, align 8
  store ptr %0, ptr %2, align 8, !tbaa !73
  %3 = load ptr, ptr %2, align 8, !tbaa !73
  %4 = ptrtoint ptr %3 to i64
  %5 = and i64 %4, -2
  %6 = inttoptr i64 %5 to ptr
  ret ptr %6
}

; Function Attrs: inlinehint nounwind uwtable
define internal ptr @Gia_ObjChild1(ptr noundef %0) #2 {
  %2 = alloca ptr, align 8
  store ptr %0, ptr %2, align 8, !tbaa !73
  %3 = load ptr, ptr %2, align 8, !tbaa !73
  %4 = call ptr @Gia_ObjFanin1(ptr noundef %3)
  %5 = load ptr, ptr %2, align 8, !tbaa !73
  %6 = call i32 @Gia_ObjFaninC1(ptr noundef %5)
  %7 = call ptr @Gia_NotCond(ptr noundef %4, i32 noundef %6)
  ret ptr %7
}

; Function Attrs: inlinehint nounwind uwtable
define internal ptr @Gia_ObjChild0(ptr noundef %0) #2 {
  %2 = alloca ptr, align 8
  store ptr %0, ptr %2, align 8, !tbaa !73
  %3 = load ptr, ptr %2, align 8, !tbaa !73
  %4 = call ptr @Gia_ObjFanin0(ptr noundef %3)
  %5 = load ptr, ptr %2, align 8, !tbaa !73
  %6 = call i32 @Gia_ObjFaninC0(ptr noundef %5)
  %7 = call ptr @Gia_NotCond(ptr noundef %4, i32 noundef %6)
  ret ptr %7
}

; Function Attrs: inlinehint nounwind uwtable
define internal i32 @Vec_IntPushUnique(ptr noundef %0, i32 noundef %1) #2 {
  %3 = alloca i32, align 4
  %4 = alloca ptr, align 8
  %5 = alloca i32, align 4
  %6 = alloca i32, align 4
  %7 = alloca i32, align 4
  store ptr %0, ptr %4, align 8, !tbaa !29
  store i32 %1, ptr %5, align 4, !tbaa !47
  call void @llvm.lifetime.start.p0(i64 4, ptr %6) #13
  store i32 0, ptr %6, align 4, !tbaa !47
  br label %8

8:                                                ; preds = %26, %2
  %9 = load i32, ptr %6, align 4, !tbaa !47
  %10 = load ptr, ptr %4, align 8, !tbaa !29
  %11 = getelementptr inbounds nuw %struct.Vec_Int_t_, ptr %10, i32 0, i32 1
  %12 = load i32, ptr %11, align 4, !tbaa !30
  %13 = icmp slt i32 %9, %12
  br i1 %13, label %14, label %29

14:                                               ; preds = %8
  %15 = load ptr, ptr %4, align 8, !tbaa !29
  %16 = getelementptr inbounds nuw %struct.Vec_Int_t_, ptr %15, i32 0, i32 2
  %17 = load ptr, ptr %16, align 8, !tbaa !69
  %18 = load i32, ptr %6, align 4, !tbaa !47
  %19 = sext i32 %18 to i64
  %20 = getelementptr inbounds i32, ptr %17, i64 %19
  %21 = load i32, ptr %20, align 4, !tbaa !47
  %22 = load i32, ptr %5, align 4, !tbaa !47
  %23 = icmp eq i32 %21, %22
  br i1 %23, label %24, label %25

24:                                               ; preds = %14
  store i32 1, ptr %3, align 4
  store i32 1, ptr %7, align 4
  br label %32

25:                                               ; preds = %14
  br label %26

26:                                               ; preds = %25
  %27 = load i32, ptr %6, align 4, !tbaa !47
  %28 = add nsw i32 %27, 1
  store i32 %28, ptr %6, align 4, !tbaa !47
  br label %8, !llvm.loop !147

29:                                               ; preds = %8
  %30 = load ptr, ptr %4, align 8, !tbaa !29
  %31 = load i32, ptr %5, align 4, !tbaa !47
  call void @Vec_IntPush(ptr noundef %30, i32 noundef %31)
  store i32 0, ptr %3, align 4
  store i32 1, ptr %7, align 4
  br label %32

32:                                               ; preds = %29, %24
  call void @llvm.lifetime.end.p0(i64 4, ptr %6) #13
  %33 = load i32, ptr %3, align 4
  ret i32 %33
}

; Function Attrs: inlinehint nounwind uwtable
define internal i32 @Gia_Obj2Lit(ptr noundef %0, ptr noundef %1) #2 {
  %3 = alloca ptr, align 8
  %4 = alloca ptr, align 8
  store ptr %0, ptr %3, align 8, !tbaa !3
  store ptr %1, ptr %4, align 8, !tbaa !73
  %5 = load ptr, ptr %3, align 8, !tbaa !3
  %6 = load ptr, ptr %4, align 8, !tbaa !73
  %7 = call ptr @Gia_Regular(ptr noundef %6)
  %8 = call i32 @Gia_ObjId(ptr noundef %5, ptr noundef %7)
  %9 = load ptr, ptr %4, align 8, !tbaa !73
  %10 = call i32 @Gia_IsComplement(ptr noundef %9)
  %11 = call i32 @Abc_Var2Lit(i32 noundef %8, i32 noundef %10)
  ret i32 %11
}

; Function Attrs: inlinehint nounwind uwtable
define internal i32 @Gia_ObjIsCi(ptr noundef %0) #2 {
  %2 = alloca ptr, align 8
  store ptr %0, ptr %2, align 8, !tbaa !73
  %3 = load ptr, ptr %2, align 8, !tbaa !73
  %4 = load i64, ptr %3, align 4
  %5 = lshr i64 %4, 31
  %6 = and i64 %5, 1
  %7 = trunc i64 %6 to i32
  %8 = icmp ne i32 %7, 0
  br i1 %8, label %9, label %15

9:                                                ; preds = %1
  %10 = load ptr, ptr %2, align 8, !tbaa !73
  %11 = load i64, ptr %10, align 4
  %12 = and i64 %11, 536870911
  %13 = trunc i64 %12 to i32
  %14 = icmp eq i32 %13, 536870911
  br label %15

15:                                               ; preds = %9, %1
  %16 = phi i1 [ false, %1 ], [ %14, %9 ]
  %17 = zext i1 %16 to i32
  ret i32 %17
}

; Function Attrs: inlinehint nounwind uwtable
define internal i32 @Gia_IsComplement(ptr noundef %0) #2 {
  %2 = alloca ptr, align 8
  store ptr %0, ptr %2, align 8, !tbaa !73
  %3 = load ptr, ptr %2, align 8, !tbaa !73
  %4 = ptrtoint ptr %3 to i64
  %5 = and i64 %4, 1
  %6 = trunc i64 %5 to i32
  ret i32 %6
}

; Function Attrs: nounwind uwtable
define internal void @Gia_ManCollectSuper_rec(ptr noundef %0, ptr noundef %1, ptr noundef %2) #0 {
  %4 = alloca ptr, align 8
  %5 = alloca ptr, align 8
  %6 = alloca ptr, align 8
  store ptr %0, ptr %4, align 8, !tbaa !3
  store ptr %1, ptr %5, align 8, !tbaa !73
  store ptr %2, ptr %6, align 8, !tbaa !29
  %7 = load ptr, ptr %5, align 8, !tbaa !73
  %8 = call i32 @Gia_IsComplement(ptr noundef %7)
  %9 = icmp ne i32 %8, 0
  br i1 %9, label %25, label %10

10:                                               ; preds = %3
  %11 = load ptr, ptr %5, align 8, !tbaa !73
  %12 = load i64, ptr %11, align 4
  %13 = lshr i64 %12, 62
  %14 = and i64 %13, 1
  %15 = trunc i64 %14 to i32
  %16 = icmp ne i32 %15, 0
  br i1 %16, label %25, label %17

17:                                               ; preds = %10
  %18 = load ptr, ptr %5, align 8, !tbaa !73
  %19 = call i32 @Gia_ObjIsCi(ptr noundef %18)
  %20 = icmp ne i32 %19, 0
  br i1 %20, label %25, label %21

21:                                               ; preds = %17
  %22 = load ptr, ptr %5, align 8, !tbaa !73
  %23 = call i32 @Gia_ObjIsMuxType(ptr noundef %22)
  %24 = icmp ne i32 %23, 0
  br i1 %24, label %25, label %31

25:                                               ; preds = %21, %17, %10, %3
  %26 = load ptr, ptr %6, align 8, !tbaa !29
  %27 = load ptr, ptr %4, align 8, !tbaa !3
  %28 = load ptr, ptr %5, align 8, !tbaa !73
  %29 = call i32 @Gia_Obj2Lit(ptr noundef %27, ptr noundef %28)
  %30 = call i32 @Vec_IntPushUnique(ptr noundef %26, i32 noundef %29)
  br label %40

31:                                               ; preds = %21
  %32 = load ptr, ptr %4, align 8, !tbaa !3
  %33 = load ptr, ptr %5, align 8, !tbaa !73
  %34 = call ptr @Gia_ObjChild0(ptr noundef %33)
  %35 = load ptr, ptr %6, align 8, !tbaa !29
  call void @Gia_ManCollectSuper_rec(ptr noundef %32, ptr noundef %34, ptr noundef %35)
  %36 = load ptr, ptr %4, align 8, !tbaa !3
  %37 = load ptr, ptr %5, align 8, !tbaa !73
  %38 = call ptr @Gia_ObjChild1(ptr noundef %37)
  %39 = load ptr, ptr %6, align 8, !tbaa !29
  call void @Gia_ManCollectSuper_rec(ptr noundef %36, ptr noundef %38, ptr noundef %39)
  br label %40

40:                                               ; preds = %31, %25
  ret void
}