; Function Attrs: nounwind uwtable
define internal fastcc void @Gia_ManCollectSuper_rec(ptr noundef readonly captures(none) %0, ptr noundef %1, ptr noundef captures(none) %2) unnamed_addr #0 {
  %4 = ptrtoint ptr %1 to i64
  %5 = and i64 %4, 1
  %.not20 = icmp eq i64 %5, 0
  br i1 %.not20, label %.lr.ph.preheader, label %._crit_edge

.lr.ph.preheader:                                 ; preds = %3
  %6 = load i64, ptr %1, align 4
  %7 = and i64 %6, 4611686018427387904
  %.not1328 = icmp ne i64 %7, 0
  %8 = and i64 %6, 2684354559
  %narrow.i.not29 = icmp eq i64 %8, 2684354559
  %or.cond30 = or i1 %.not1328, %narrow.i.not29
  br i1 %or.cond30, label %._crit_edge, label %.lr.ph32

.lr.ph:                                           ; preds = %tailrecurse
  %9 = inttoptr i64 %79 to ptr
  %10 = load i64, ptr %9, align 4
  %11 = and i64 %10, 4611686018427387904
  %.not13 = icmp ne i64 %11, 0
  %12 = and i64 %10, 2684354559
  %narrow.i.not = icmp eq i64 %12, 2684354559
  %or.cond = or i1 %.not13, %narrow.i.not
  br i1 %or.cond, label %._crit_edge, label %.lr.ph32

.lr.ph32:                                         ; preds = %.lr.ph.preheader, %.lr.ph
  %.tr172131 = phi ptr [ %9, %.lr.ph ], [ %1, %.lr.ph.preheader ]
  %13 = phi i64 [ %79, %.lr.ph ], [ %4, %.lr.ph.preheader ]
  %14 = tail call i32 @Gia_ObjIsMuxType(ptr noundef nonnull %.tr172131) #23
  %.not15 = icmp eq i32 %14, 0
  br i1 %.not15, label %tailrecurse, label %._crit_edge

._crit_edge:                                      ; preds = %.lr.ph32, %.lr.ph, %tailrecurse, %.lr.ph.preheader, %3
  %.lcssa19 = phi i64 [ %4, %3 ], [ %4, %.lr.ph.preheader ], [ %79, %tailrecurse ], [ %79, %.lr.ph ], [ %13, %.lr.ph32 ]
  %.lcssa = phi i32 [ 1, %3 ], [ 0, %.lr.ph.preheader ], [ 1, %tailrecurse ], [ 0, %.lr.ph ], [ 0, %.lr.ph32 ]
  %15 = getelementptr i8, ptr %0, i64 32
  %.val = load ptr, ptr %15, align 8, !tbaa !71
  %16 = and i64 %.lcssa19, -2
  %17 = ptrtoint ptr %.val to i64
  %18 = sub i64 %16, %17
  %19 = sdiv exact i64 %18, 12
  %20 = trunc i64 %19 to i32
  %21 = shl nsw i32 %20, 1
  %22 = or disjoint i32 %21, %.lcssa
  %23 = getelementptr inbounds nuw i8, ptr %2, i64 4
  %24 = load i32, ptr %23, align 4, !tbaa !3
  %25 = icmp sgt i32 %24, 0
  br i1 %25, label %.lr.ph.i, label %._crit_edge.i

.lr.ph.i:                                         ; preds = %._crit_edge
  %26 = getelementptr inbounds nuw i8, ptr %2, i64 8
  %27 = load ptr, ptr %26, align 8, !tbaa !34
  %wide.trip.count.i = zext nneg i32 %24 to i64
  br label %29

28:                                               ; preds = %29
  %indvars.iv.next.i = add nuw nsw i64 %indvars.iv.i, 1
  %exitcond.not.i = icmp eq i64 %indvars.iv.next.i, %wide.trip.count.i
  br i1 %exitcond.not.i, label %._crit_edge.i, label %29, !llvm.loop !116

29:                                               ; preds = %28, %.lr.ph.i
  %indvars.iv.i = phi i64 [ 0, %.lr.ph.i ], [ %indvars.iv.next.i, %28 ]
  %30 = getelementptr inbounds nuw i32, ptr %27, i64 %indvars.iv.i
  %31 = load i32, ptr %30, align 4, !tbaa !44
  %32 = icmp eq i32 %31, %22
  br i1 %32, label %Vec_IntPushUnique.exit, label %28

._crit_edge.i:                                    ; preds = %28, %._crit_edge
  %33 = load i32, ptr %2, align 8, !tbaa !33
  %34 = icmp eq i32 %24, %33
  br i1 %34, label %35, label %.Vec_IntGrow.exit10_crit_edge.i.i

.Vec_IntGrow.exit10_crit_edge.i.i:                ; preds = %._crit_edge.i
  %.phi.trans.insert.i.i = getelementptr inbounds nuw i8, ptr %2, i64 8
  %.pre.i.i = load ptr, ptr %.phi.trans.insert.i.i, align 8, !tbaa !34
  br label %Vec_IntPush.exit.i

35:                                               ; preds = %._crit_edge.i
  %36 = icmp slt i32 %24, 16
  br i1 %36, label %37, label %45

37:                                               ; preds = %35
  %38 = getelementptr inbounds nuw i8, ptr %2, i64 8
  %39 = load ptr, ptr %38, align 8, !tbaa !34
  %.not9.i.i.i = icmp eq ptr %39, null
  br i1 %.not9.i.i.i, label %42, label %40

40:                                               ; preds = %37
  %41 = tail call dereferenceable_or_null(64) ptr @realloc(ptr noundef nonnull %39, i64 noundef 64) #26
  br label %Vec_IntGrow.exit.i.i

42:                                               ; preds = %37
  %43 = tail call noalias dereferenceable_or_null(64) ptr @malloc(i64 noundef 64) #25
  br label %Vec_IntGrow.exit.i.i

Vec_IntGrow.exit.i.i:                             ; preds = %42, %40
  %44 = phi ptr [ %41, %40 ], [ %43, %42 ]
  store ptr %44, ptr %38, align 8, !tbaa !34
  store i32 16, ptr %2, align 8, !tbaa !33
  br label %Vec_IntPush.exit.i

45:                                               ; preds = %35
  %46 = shl nuw nsw i32 %24, 1
  %47 = getelementptr inbounds nuw i8, ptr %2, i64 8
  %48 = load ptr, ptr %47, align 8, !tbaa !34
  %.not9.i9.i.i = icmp eq ptr %48, null
  %49 = zext nneg i32 %46 to i64
  %50 = shl nuw nsw i64 %49, 2
  br i1 %.not9.i9.i.i, label %53, label %51

51:                                               ; preds = %45
  %52 = tail call ptr @realloc(ptr noundef nonnull %48, i64 noundef %50) #26
  br label %55

53:                                               ; preds = %45
  %54 = tail call noalias ptr @malloc(i64 noundef %50) #25
  br label %55

55:                                               ; preds = %53, %51
  %56 = phi ptr [ %52, %51 ], [ %54, %53 ]
  store ptr %56, ptr %47, align 8, !tbaa !34
  store i32 %46, ptr %2, align 8, !tbaa !33
  br label %Vec_IntPush.exit.i

Vec_IntPush.exit.i:                               ; preds = %55, %Vec_IntGrow.exit.i.i, %.Vec_IntGrow.exit10_crit_edge.i.i
  %57 = phi ptr [ %.pre.i.i, %.Vec_IntGrow.exit10_crit_edge.i.i ], [ %56, %55 ], [ %44, %Vec_IntGrow.exit.i.i ]
  %58 = load i32, ptr %23, align 4, !tbaa !3
  %59 = add nsw i32 %58, 1
  store i32 %59, ptr %23, align 4, !tbaa !3
  %60 = sext i32 %58 to i64
  %61 = getelementptr inbounds i32, ptr %57, i64 %60
  store i32 %22, ptr %61, align 4, !tbaa !44
  br label %Vec_IntPushUnique.exit

tailrecurse:                                      ; preds = %.lr.ph32
  %62 = load i64, ptr %.tr172131, align 4
  %63 = and i64 %62, 536870911
  %64 = sub nsw i64 0, %63
  %65 = getelementptr inbounds %struct.Gia_Obj_t_, ptr %.tr172131, i64 %64
  %66 = lshr i64 %62, 29
  %67 = and i64 %66, 1
  %68 = ptrtoint ptr %65 to i64
  %69 = xor i64 %67, %68
  %70 = inttoptr i64 %69 to ptr
  tail call fastcc void @Gia_ManCollectSuper_rec(ptr noundef %0, ptr noundef %70, ptr noundef %2)
  %71 = load i64, ptr %.tr172131, align 4
  %72 = lshr i64 %71, 32
  %73 = and i64 %72, 536870911
  %74 = sub nsw i64 0, %73
  %75 = getelementptr inbounds %struct.Gia_Obj_t_, ptr %.tr172131, i64 %74
  %76 = lshr i64 %71, 61
  %77 = and i64 %76, 1
  %78 = ptrtoint ptr %75 to i64
  %79 = xor i64 %77, %78
  %80 = and i64 %79, 1
  %.not = icmp eq i64 %80, 0
  br i1 %.not, label %.lr.ph, label %._crit_edge

Vec_IntPushUnique.exit:                           ; preds = %29, %Vec_IntPush.exit.i
  ret void
}